; Function Attrs: uwtable
define noundef i32 @_ZThn16_NK16CubizationPlugin13postConditionEPK7QAction(ptr noundef %0, ptr noundef %1) unnamed_addr #14 align 2 {
  %3 = load ptr, ptr %0, align 8
  %4 = getelementptr inbounds i8, ptr %3, i64 144
  %5 = load ptr, ptr %4, align 8
  %6 = tail call noundef i32 %5(ptr noundef nonnull align 8 dereferenceable(64) %0, ptr noundef %1)
  %cond.i = icmp eq i32 %6, 0
  %..i = sext i1 %cond.i to i32
  ret i32 %..i
}